target datalayout = "e-m:e-p270:32:32-p271:32:32-p272:64:64-i64:64-i128:128-f80:128-n8:16:32:64-S128"
target triple = "x86_64-unknown-linux-gnu"

%struct.UResourceDataEntry = type { ptr, ptr, ptr, ptr, ptr, %struct.ResourceData, [3 x i8], i32, i32 }
%struct.ResourceData = type { ptr, ptr, ptr, ptr, i32, i32, ptr, i32, i32, i8, i8, i8, i8 }

; Function Attrs: mustprogress uwtable
define internal void @_ZL10free_entryP18UResourceDataEntry(ptr noundef %entry1) #1 {
entry:
  %entry.addr = alloca ptr, align 8
  %alias = alloca ptr, align 8
  store ptr %entry1, ptr %entry.addr, align 8
  %0 = load ptr, ptr %entry.addr, align 8
  %fData = getelementptr inbounds %struct.UResourceDataEntry, ptr %0, i32 0, i32 5
  call void @res_unload_75(ptr noundef %fData)
  %1 = load ptr, ptr %entry.addr, align 8
  %fName = getelementptr inbounds %struct.UResourceDataEntry, ptr %1, i32 0, i32 0
  %2 = load ptr, ptr %fName, align 8
  %cmp = icmp ne ptr %2, null
  br i1 %cmp, label %land.lhs.true, label %if.end

land.lhs.true:                                    ; preds = %entry
  %3 = load ptr, ptr %entry.addr, align 8
  %fName2 = getelementptr inbounds %struct.UResourceDataEntry, ptr %3, i32 0, i32 0
  %4 = load ptr, ptr %fName2, align 8
  %5 = load ptr, ptr %entry.addr, align 8
  %fNameBuffer = getelementptr inbounds %struct.UResourceDataEntry, ptr %5, i32 0, i32 6
  %arraydecay = getelementptr inbounds [3 x i8], ptr %fNameBuffer, i64 0, i64 0
  %cmp3 = icmp ne ptr %4, %arraydecay
  br i1 %cmp3, label %if.then, label %if.end

if.then:                                          ; preds = %land.lhs.true
  %6 = load ptr, ptr %entry.addr, align 8
  %fName4 = getelementptr inbounds %struct.UResourceDataEntry, ptr %6, i32 0, i32 0
  %7 = load ptr, ptr %fName4, align 8
  call void @uprv_free_75(ptr noundef %7)
  br label %if.end

if.end:                                           ; preds = %if.then, %land.lhs.true, %entry
  %8 = load ptr, ptr %entry.addr, align 8
  %fPath = getelementptr inbounds %struct.UResourceDataEntry, ptr %8, i32 0, i32 1
  %9 = load ptr, ptr %fPath, align 8
  %cmp5 = icmp ne ptr %9, null
  br i1 %cmp5, label %if.then6, label %if.end8

if.then6:                                         ; preds = %if.end
  %10 = load ptr, ptr %entry.addr, align 8
  %fPath7 = getelementptr inbounds %struct.UResourceDataEntry, ptr %10, i32 0, i32 1
  %11 = load ptr, ptr %fPath7, align 8
  call void @uprv_free_75(ptr noundef %11)
  br label %if.end8

if.end8:                                          ; preds = %if.then6, %if.end
  %12 = load ptr, ptr %entry.addr, align 8
  %fPool = getelementptr inbounds %struct.UResourceDataEntry, ptr %12, i32 0, i32 4
  %13 = load ptr, ptr %fPool, align 8
  %cmp9 = icmp ne ptr %13, null
  br i1 %cmp9, label %if.then10, label %if.end12

if.then10:                                        ; preds = %if.end8
  %14 = load ptr, ptr %entry.addr, align 8
  %fPool11 = getelementptr inbounds %struct.UResourceDataEntry, ptr %14, i32 0, i32 4
  %15 = load ptr, ptr %fPool11, align 8
  %fCountExisting = getelementptr inbounds %struct.UResourceDataEntry, ptr %15, i32 0, i32 7
  %16 = load i32, ptr %fCountExisting, align 4
  %dec = add i32 %16, -1
  store i32 %dec, ptr %fCountExisting, align 4
  br label %if.end12

if.end12:                                         ; preds = %if.then10, %if.end8
  %17 = load ptr, ptr %entry.addr, align 8
  %fAlias = getelementptr inbounds %struct.UResourceDataEntry, ptr %17, i32 0, i32 3
  %18 = load ptr, ptr %fAlias, align 8
  store ptr %18, ptr %alias, align 8
  %19 = load ptr, ptr %alias, align 8
  %cmp13 = icmp ne ptr %19, null
  br i1 %cmp13, label %if.then14, label %if.end20

if.then14:                                        ; preds = %if.end12
  br label %while.cond

while.cond:                                       ; preds = %while.body, %if.then14
  %20 = load ptr, ptr %alias, align 8
  %fAlias15 = getelementptr inbounds %struct.UResourceDataEntry, ptr %20, i32 0, i32 3
  %21 = load ptr, ptr %fAlias15, align 8
  %cmp16 = icmp ne ptr %21, null
  br i1 %cmp16, label %while.body, label %while.end

while.body:                                       ; preds = %while.cond
  %22 = load ptr, ptr %alias, align 8
  %fAlias17 = getelementptr inbounds %struct.UResourceDataEntry, ptr %22, i32 0, i32 3
  %23 = load ptr, ptr %fAlias17, align 8
  store ptr %23, ptr %alias, align 8
  br label %while.cond, !llvm.loop !36

while.end:                                        ; preds = %while.cond
  %24 = load ptr, ptr %alias, align 8
  %fCountExisting18 = getelementptr inbounds %struct.UResourceDataEntry, ptr %24, i32 0, i32 7
  %25 = load i32, ptr %fCountExisting18, align 4
  %dec19 = add i32 %25, -1
  store i32 %dec19, ptr %fCountExisting18, align 4
  br label %if.end20

if.end20:                                         ; preds = %while.end, %if.end12
  %26 = load ptr, ptr %entry.addr, align 8
  call void @uprv_free_75(ptr noundef %26)
  ret void
}