; Function Attrs: mustprogress uwtable
define internal fastcc void @_ZL10free_entryP18UResourceDataEntry(ptr noundef %entry1) unnamed_addr #1 {
entry:
  %fData = getelementptr inbounds i8, ptr %entry1, i64 40
  tail call void @res_unload_75(ptr noundef nonnull %fData)
  %0 = load ptr, ptr %entry1, align 8
  %cmp.not = icmp eq ptr %0, null
  %fNameBuffer = getelementptr inbounds i8, ptr %entry1, i64 104
  %cmp3.not = icmp eq ptr %0, %fNameBuffer
  %or.cond = select i1 %cmp.not, i1 true, i1 %cmp3.not
  br i1 %or.cond, label %if.end, label %if.then

if.then:                                          ; preds = %entry
  tail call void @uprv_free_75(ptr noundef nonnull %0)
  br label %if.end

if.end:                                           ; preds = %if.then, %entry
  %fPath = getelementptr inbounds i8, ptr %entry1, i64 8
  %1 = load ptr, ptr %fPath, align 8
  %cmp5.not = icmp eq ptr %1, null
  br i1 %cmp5.not, label %if.end8, label %if.then6

if.then6:                                         ; preds = %if.end
  tail call void @uprv_free_75(ptr noundef nonnull %1)
  br label %if.end8

if.end8:                                          ; preds = %if.then6, %if.end
  %fPool = getelementptr inbounds i8, ptr %entry1, i64 32
  %2 = load ptr, ptr %fPool, align 8
  %cmp9.not = icmp eq ptr %2, null
  br i1 %cmp9.not, label %if.end12, label %if.then10

if.then10:                                        ; preds = %if.end8
  %fCountExisting = getelementptr inbounds i8, ptr %2, i64 108
  %3 = load i32, ptr %fCountExisting, align 4
  %dec = add i32 %3, -1
  store i32 %dec, ptr %fCountExisting, align 4
  br label %if.end12

if.end12:                                         ; preds = %if.then10, %if.end8
  %fAlias = getelementptr inbounds i8, ptr %entry1, i64 24
  %4 = load ptr, ptr %fAlias, align 8
  %cmp13.not = icmp eq ptr %4, null
  br i1 %cmp13.not, label %if.end20, label %while.cond

while.cond:                                       ; preds = %if.end12, %while.cond
  %alias.0 = phi ptr [ %5, %while.cond ], [ %4, %if.end12 ]
  %fAlias15 = getelementptr inbounds i8, ptr %alias.0, i64 24
  %5 = load ptr, ptr %fAlias15, align 8
  %cmp16.not = icmp eq ptr %5, null
  br i1 %cmp16.not, label %while.end, label %while.cond, !llvm.loop !36

while.end:                                        ; preds = %while.cond
  %fCountExisting18 = getelementptr inbounds i8, ptr %alias.0, i64 108
  %6 = load i32, ptr %fCountExisting18, align 4
  %dec19 = add i32 %6, -1
  store i32 %dec19, ptr %fCountExisting18, align 4
  br label %if.end20

if.end20:                                         ; preds = %while.end, %if.end12
  tail call void @uprv_free_75(ptr noundef nonnull %entry1)
  ret void
}